; ModuleID = '40/287.c'
source_filename = "40/287.c"
target datalayout = "e-m:e-p270:32:32-p271:32:32-p272:64:64-i64:64-f80:128-n8:16:32:64-S128"
target triple = "x86_64-pc-linux-gnu"

@.str = private unnamed_addr constant [13 x i8] c"%lf%lf%lf%lf\00", align 1
@.str.1 = private unnamed_addr constant [4 x i8] c"%lf\00", align 1
@.str.2 = private unnamed_addr constant [14 x i8] c"Invalid input\00", align 1
@.str.3 = private unnamed_addr constant [7 x i8] c"%.4lf\0A\00", align 1

; Function Attrs: noinline nounwind uwtable
define dso_local i32 @main() #0 {
  %1 = alloca i32, align 4
  %2 = alloca double, align 8
  %3 = alloca double, align 8
  %4 = alloca double, align 8
  %5 = alloca double, align 8
  %6 = alloca double, align 8
  %7 = alloca double, align 8
  %8 = alloca double, align 8
  store i32 0, i32* %1, align 4
  %9 = call i32 (i8*, ...) @__isoc99_scanf(i8* getelementptr inbounds ([13 x i8], [13 x i8]* @.str, i64 0, i64 0), double* %3, double* %4, double* %5, double* %6)
  %10 = call i32 (i8*, ...) @__isoc99_scanf(i8* getelementptr inbounds ([4 x i8], [4 x i8]* @.str.1, i64 0, i64 0), double* %7)
  %11 = load double, double* %3, align 8
  %12 = load double, double* %4, align 8
  %13 = fadd double %11, %12
  %14 = load double, double* %5, align 8
  %15 = fadd double %13, %14
  %16 = load double, double* %6, align 8
  %17 = fadd double %15, %16
  %18 = fmul double 5.000000e-01, %17
  store double %18, double* %2, align 8
  %19 = load double, double* %2, align 8
  %20 = load double, double* %3, align 8
  %21 = fsub double %19, %20
  %22 = load double, double* %2, align 8
  %23 = load double, double* %4, align 8
  %24 = fsub double %22, %23
  %25 = fmul double %21, %24
  %26 = load double, double* %2, align 8
  %27 = load double, double* %5, align 8
  %28 = fsub double %26, %27
  %29 = fmul double %25, %28
  %30 = load double, double* %2, align 8
  %31 = load double, double* %6, align 8
  %32 = fsub double %30, %31
  %33 = fmul double %29, %32
  %34 = load double, double* %3, align 8
  %35 = load double, double* %4, align 8
  %36 = fmul double %34, %35
  %37 = load double, double* %5, align 8
  %38 = fmul double %36, %37
  %39 = load double, double* %6, align 8
  %40 = fmul double %38, %39
  %41 = load double, double* %7, align 8
  %42 = fmul double %41, 0x400921FB4D12D84A
  %43 = fdiv double %42, 1.800000e+02
  %44 = fdiv double %43, 2.000000e+00
  %45 = call double @cos(double %44) #3
  %46 = fmul double %40, %45
  %47 = load double, double* %7, align 8
  %48 = fmul double %47, 0x400921FB4D12D84A
  %49 = fdiv double %48, 1.800000e+02
  %50 = fdiv double %49, 2.000000e+00
  %51 = call double @cos(double %50) #3
  %52 = fmul double %46, %51
  %53 = fsub double %33, %52
  %54 = fcmp olt double %53, 0.000000e+00
  br i1 %54, label %55, label %57

55:                                               ; preds = %0
  %56 = call i32 (i8*, ...) @printf(i8* getelementptr inbounds ([14 x i8], [14 x i8]* @.str.2, i64 0, i64 0))
  store i32 0, i32* %1, align 4
  br label %96

57:                                               ; preds = %0
  %58 = load double, double* %2, align 8
  %59 = load double, double* %3, align 8
  %60 = fsub double %58, %59
  %61 = load double, double* %2, align 8
  %62 = load double, double* %4, align 8
  %63 = fsub double %61, %62
  %64 = fmul double %60, %63
  %65 = load double, double* %2, align 8
  %66 = load double, double* %5, align 8
  %67 = fsub double %65, %66
  %68 = fmul double %64, %67
  %69 = load double, double* %2, align 8
  %70 = load double, double* %6, align 8
  %71 = fsub double %69, %70
  %72 = fmul double %68, %71
  %73 = load double, double* %3, align 8
  %74 = load double, double* %4, align 8
  %75 = fmul double %73, %74
  %76 = load double, double* %5, align 8
  %77 = fmul double %75, %76
  %78 = load double, double* %6, align 8
  %79 = fmul double %77, %78
  %80 = load double, double* %7, align 8
  %81 = fmul double %80, 0x400921FB4D12D84A
  %82 = fdiv double %81, 1.800000e+02
  %83 = fdiv double %82, 2.000000e+00
  %84 = call double @cos(double %83) #3
  %85 = fmul double %79, %84
  %86 = load double, double* %7, align 8
  %87 = fmul double %86, 0x400921FB4D12D84A
  %88 = fdiv double %87, 1.800000e+02
  %89 = fdiv double %88, 2.000000e+00
  %90 = call double @cos(double %89) #3
  %91 = fmul double %85, %90
  %92 = fsub double %72, %91
  %93 = call double @sqrt(double %92) #3
  store double %93, double* %8, align 8
  %94 = load double, double* %8, align 8
  %95 = call i32 (i8*, ...) @printf(i8* getelementptr inbounds ([7 x i8], [7 x i8]* @.str.3, i64 0, i64 0), double %94)
  store i32 0, i32* %1, align 4
  br label %96

96:                                               ; preds = %57, %55
  %97 = load i32, i32* %1, align 4
  ret i32 %97
}

declare dso_local i32 @__isoc99_scanf(i8*, ...) #1

; Function Attrs: nounwind
declare dso_local double @cos(double) #2

declare dso_local i32 @printf(i8*, ...) #1

; Function Attrs: nounwind
declare dso_local double @sqrt(double) #2


!llvm.module.flags = !{!0}
!llvm.ident = !{!1}

!0 = !{i32 1, !"wchar_size", i32 4}
!1 = !{!"clang version 10.0.0-4ubuntu1 "}
